; Function Attrs: nounwind uwtable
define i32 @Gia_ManTerRetire(ptr noundef readonly captures(none) %0, ptr noundef readonly captures(none) %1, ptr noundef readonly captures(none) %2) local_unnamed_addr #0 {
  %4 = getelementptr inbounds nuw i8, ptr %0, i64 32
  %5 = load ptr, ptr %4, align 8
  %6 = getelementptr inbounds nuw i8, ptr %5, i64 4
  store i32 0, ptr %6, align 4
  %7 = load ptr, ptr %0, align 8
  %8 = getelementptr i8, ptr %7, i64 16
  %.val1923 = load i32, ptr %8, align 8
  %9 = icmp sgt i32 %.val1923, 0
  br i1 %9, label %.lr.ph, label %.preheader

.preheader:                                       ; preds = %59, %3
  %10 = load ptr, ptr %4, align 8
  %11 = getelementptr i8, ptr %10, i64 4
  %.val1825 = load i32, ptr %11, align 4
  %12 = icmp sgt i32 %.val1825, 0
  br i1 %12, label %.lr.ph27, label %.critedge

.lr.ph27:                                         ; preds = %.preheader
  %13 = getelementptr inbounds nuw i8, ptr %0, i64 88
  br label %64

.lr.ph:                                           ; preds = %3, %59
  %14 = phi ptr [ %60, %59 ], [ %7, %3 ]
  %.024 = phi i32 [ %61, %59 ], [ 0, %3 ]
  %15 = lshr i32 %.024, 4
  %16 = zext nneg i32 %15 to i64
  %17 = getelementptr inbounds nuw i32, ptr %1, i64 %16
  %18 = load i32, ptr %17, align 4
  %19 = shl nuw i32 %.024, 1
  %20 = and i32 %19, 30
  %21 = getelementptr inbounds nuw i32, ptr %2, i64 %16
  %22 = load i32, ptr %21, align 4
  %23 = xor i32 %22, %18
  %24 = shl nuw i32 3, %20
  %25 = and i32 %23, %24
  %.not = icmp eq i32 %25, 0
  br i1 %.not, label %59, label %26

26:                                               ; preds = %.lr.ph
  %27 = load ptr, ptr %4, align 8
  %28 = getelementptr inbounds nuw i8, ptr %27, i64 4
  %29 = load i32, ptr %28, align 4
  %30 = load i32, ptr %27, align 8
  %31 = icmp eq i32 %29, %30
  br i1 %31, label %32, label %.Vec_IntGrow.exit10_crit_edge.i

.Vec_IntGrow.exit10_crit_edge.i:                  ; preds = %26
  %.phi.trans.insert.i = getelementptr inbounds nuw i8, ptr %27, i64 8
  %.pre.i = load ptr, ptr %.phi.trans.insert.i, align 8
  br label %Vec_IntPush.exit

32:                                               ; preds = %26
  %33 = icmp slt i32 %29, 16
  br i1 %33, label %34, label %42

34:                                               ; preds = %32
  %35 = getelementptr inbounds nuw i8, ptr %27, i64 8
  %36 = load ptr, ptr %35, align 8
  %.not9.i.i = icmp eq ptr %36, null
  br i1 %.not9.i.i, label %39, label %37

37:                                               ; preds = %34
  %38 = tail call dereferenceable_or_null(64) ptr @realloc(ptr noundef nonnull %36, i64 noundef 64) #24
  br label %Vec_IntGrow.exit.i

39:                                               ; preds = %34
  %40 = tail call noalias dereferenceable_or_null(64) ptr @malloc(i64 noundef 64) #23
  br label %Vec_IntGrow.exit.i

Vec_IntGrow.exit.i:                               ; preds = %39, %37
  %41 = phi ptr [ %38, %37 ], [ %40, %39 ]
  store ptr %41, ptr %35, align 8
  store i32 16, ptr %27, align 8
  br label %Vec_IntPush.exit

42:                                               ; preds = %32
  %43 = shl nuw nsw i32 %29, 1
  %44 = getelementptr inbounds nuw i8, ptr %27, i64 8
  %45 = load ptr, ptr %44, align 8
  %.not9.i9.i = icmp eq ptr %45, null
  %46 = zext nneg i32 %43 to i64
  %47 = shl nuw nsw i64 %46, 2
  br i1 %.not9.i9.i, label %50, label %48

48:                                               ; preds = %42
  %49 = tail call ptr @realloc(ptr noundef nonnull %45, i64 noundef %47) #24
  br label %52

50:                                               ; preds = %42
  %51 = tail call noalias ptr @malloc(i64 noundef %47) #23
  br label %52

52:                                               ; preds = %50, %48
  %53 = phi ptr [ %49, %48 ], [ %51, %50 ]
  store ptr %53, ptr %44, align 8
  store i32 %43, ptr %27, align 8
  br label %Vec_IntPush.exit

Vec_IntPush.exit:                                 ; preds = %.Vec_IntGrow.exit10_crit_edge.i, %Vec_IntGrow.exit.i, %52
  %54 = phi ptr [ %.pre.i, %.Vec_IntGrow.exit10_crit_edge.i ], [ %53, %52 ], [ %41, %Vec_IntGrow.exit.i ]
  %55 = load i32, ptr %28, align 4
  %56 = add nsw i32 %55, 1
  store i32 %56, ptr %28, align 4
  %57 = sext i32 %55 to i64
  %58 = getelementptr inbounds i32, ptr %54, i64 %57
  store i32 %.024, ptr %58, align 4
  %.pre = load ptr, ptr %0, align 8
  br label %59

59:                                               ; preds = %.lr.ph, %Vec_IntPush.exit
  %60 = phi ptr [ %14, %.lr.ph ], [ %.pre, %Vec_IntPush.exit ]
  %61 = add nuw nsw i32 %.024, 1
  %62 = getelementptr i8, ptr %60, i64 16
  %.val19 = load i32, ptr %62, align 8
  %63 = icmp slt i32 %61, %.val19
  br i1 %63, label %.lr.ph, label %.preheader, !llvm.loop !14

64:                                               ; preds = %.lr.ph27, %64
  %indvars.iv = phi i64 [ 0, %.lr.ph27 ], [ %indvars.iv.next, %64 ]
  %65 = phi ptr [ %10, %.lr.ph27 ], [ %87, %64 ]
  %66 = getelementptr i8, ptr %65, i64 8
  %.val22 = load ptr, ptr %66, align 8
  %67 = getelementptr inbounds nuw i32, ptr %.val22, i64 %indvars.iv
  %68 = load i32, ptr %67, align 4
  %69 = load ptr, ptr %13, align 8
  %70 = load ptr, ptr %0, align 8
  %71 = getelementptr i8, ptr %70, i64 16
  %.val20 = load i32, ptr %71, align 8
  %72 = getelementptr i8, ptr %70, i64 64
  %.val21 = load ptr, ptr %72, align 8
  %73 = getelementptr i8, ptr %.val21, i64 4
  %.val21.val = load i32, ptr %73, align 4
  %74 = sub nsw i32 %.val21.val, %.val20
  %75 = add nsw i32 %74, %68
  %76 = ashr i32 %75, 4
  %77 = sext i32 %76 to i64
  %78 = getelementptr inbounds i32, ptr %69, i64 %77
  %79 = load i32, ptr %78, align 4
  %80 = shl i32 %75, 1
  %81 = and i32 %80, 30
  %82 = lshr i32 %79, %81
  %83 = and i32 %82, 3
  %84 = xor i32 %83, 3
  %85 = shl nuw i32 %84, %81
  %86 = xor i32 %85, %79
  store i32 %86, ptr %78, align 4
  %indvars.iv.next = add nuw nsw i64 %indvars.iv, 1
  %87 = load ptr, ptr %4, align 8
  %88 = getelementptr i8, ptr %87, i64 4
  %.val18 = load i32, ptr %88, align 4
  %89 = sext i32 %.val18 to i64
  %90 = icmp slt i64 %indvars.iv.next, %89
  br i1 %90, label %64, label %.critedge, !llvm.loop !15

.critedge:                                        ; preds = %64, %.preheader
  %.val18.lcssa = phi i32 [ %.val1825, %.preheader ], [ %.val18, %64 ]
  ret i32 %.val18.lcssa
}